target datalayout = "e-m:e-p270:32:32-p271:32:32-p272:64:64-i64:64-i128:128-f80:128-n8:16:32:64-S128"
target triple = "x86_64-pc-linux-gnu"

%struct.filter_prov_globals_st = type { ptr, ptr, [10 x %struct.anon], i32, i32, i64, i32 }
%struct.anon = type { i32, [6 x %struct.ossl_algorithm_st] }
%struct.ossl_algorithm_st = type { ptr, ptr, ptr, ptr }

@ourglobals = internal global %struct.filter_prov_globals_st zeroinitializer, align 8

; Function Attrs: nounwind uwtable
define internal ptr @get_globals() #0 {
  ret ptr @ourglobals
}

; Function Attrs: nounwind uwtable
define internal ptr @filter_query(ptr noundef %0, i32 noundef %1, ptr noundef %2) #0 {
  %4 = alloca ptr, align 8
  %5 = alloca ptr, align 8
  %6 = alloca i32, align 4
  %7 = alloca ptr, align 8
  %8 = alloca ptr, align 8
  %9 = alloca i32, align 4
  %10 = alloca i32, align 4
  store ptr %0, ptr %5, align 8, !tbaa !13
  store i32 %1, ptr %6, align 4, !tbaa !28
  store ptr %2, ptr %7, align 8, !tbaa !50
  call void @llvm.lifetime.start.p0(i64 8, ptr %8) #7
  %11 = call ptr @get_globals()
  store ptr %11, ptr %8, align 8, !tbaa !31
  call void @llvm.lifetime.start.p0(i64 4, ptr %9) #7
  %12 = load ptr, ptr %8, align 8, !tbaa !31
  %13 = getelementptr inbounds nuw %struct.filter_prov_globals_st, ptr %12, i32 0, i32 5
  %14 = load i64, ptr %13, align 8, !tbaa !46
  %15 = add i64 %14, 1
  store i64 %15, ptr %13, align 8, !tbaa !46
  store i32 0, ptr %9, align 4, !tbaa !28
  br label %16

16:                                               ; preds = %45, %3
  %17 = load i32, ptr %9, align 4, !tbaa !28
  %18 = load ptr, ptr %8, align 8, !tbaa !31
  %19 = getelementptr inbounds nuw %struct.filter_prov_globals_st, ptr %18, i32 0, i32 3
  %20 = load i32, ptr %19, align 8, !tbaa !35
  %21 = icmp slt i32 %17, %20
  br i1 %21, label %22, label %48

22:                                               ; preds = %16
  %23 = load ptr, ptr %8, align 8, !tbaa !31
  %24 = getelementptr inbounds nuw %struct.filter_prov_globals_st, ptr %23, i32 0, i32 2
  %25 = load i32, ptr %9, align 4, !tbaa !28
  %26 = sext i32 %25 to i64
  %27 = getelementptr inbounds [10 x %struct.anon], ptr %24, i64 0, i64 %26
  %28 = getelementptr inbounds nuw %struct.anon, ptr %27, i32 0, i32 0
  %29 = load i32, ptr %28, align 8, !tbaa !43
  %30 = load i32, ptr %6, align 4, !tbaa !28
  %31 = icmp eq i32 %29, %30
  br i1 %31, label %32, label %44

32:                                               ; preds = %22
  %33 = load ptr, ptr %8, align 8, !tbaa !31
  %34 = getelementptr inbounds nuw %struct.filter_prov_globals_st, ptr %33, i32 0, i32 4
  %35 = load i32, ptr %34, align 4, !tbaa !45
  %36 = load ptr, ptr %7, align 8, !tbaa !50
  store i32 %35, ptr %36, align 4, !tbaa !28
  %37 = load ptr, ptr %8, align 8, !tbaa !31
  %38 = getelementptr inbounds nuw %struct.filter_prov_globals_st, ptr %37, i32 0, i32 2
  %39 = load i32, ptr %9, align 4, !tbaa !28
  %40 = sext i32 %39 to i64
  %41 = getelementptr inbounds [10 x %struct.anon], ptr %38, i64 0, i64 %40
  %42 = getelementptr inbounds nuw %struct.anon, ptr %41, i32 0, i32 1
  %43 = getelementptr inbounds [6 x %struct.ossl_algorithm_st], ptr %42, i64 0, i64 0
  store ptr %43, ptr %4, align 8
  store i32 1, ptr %10, align 4
  br label %55

44:                                               ; preds = %22
  br label %45

45:                                               ; preds = %44
  %46 = load i32, ptr %9, align 4, !tbaa !28
  %47 = add nsw i32 %46, 1
  store i32 %47, ptr %9, align 4, !tbaa !28
  br label %16, !llvm.loop !52

48:                                               ; preds = %16
  %49 = load ptr, ptr %8, align 8, !tbaa !31
  %50 = getelementptr inbounds nuw %struct.filter_prov_globals_st, ptr %49, i32 0, i32 1
  %51 = load ptr, ptr %50, align 8, !tbaa !24
  %52 = load i32, ptr %6, align 4, !tbaa !28
  %53 = load ptr, ptr %7, align 8, !tbaa !50
  %54 = call ptr @OSSL_PROVIDER_query_operation(ptr noundef %51, i32 noundef %52, ptr noundef %53)
  store ptr %54, ptr %4, align 8
  store i32 1, ptr %10, align 4
  br label %55

55:                                               ; preds = %48, %32
  call void @llvm.lifetime.end.p0(i64 4, ptr %9) #7
  call void @llvm.lifetime.end.p0(i64 8, ptr %8) #7
  %56 = load ptr, ptr %4, align 8
  ret ptr %56
}