; Function Attrs: nounwind uwtable
define internal ptr @filter_query(ptr readnone captures(none) %0, i32 noundef %1, ptr noundef %2) #0 {
  %4 = load i64, ptr getelementptr inbounds nuw (i8, ptr @ourglobals, i64 2024), align 8, !tbaa !35
  %5 = add i64 %4, 1
  store i64 %5, ptr getelementptr inbounds nuw (i8, ptr @ourglobals, i64 2024), align 8, !tbaa !35
  %6 = load i32, ptr getelementptr inbounds nuw (i8, ptr @ourglobals, i64 2016), align 8, !tbaa !28
  %7 = icmp sgt i32 %6, 0
  br i1 %7, label %.lr.ph.preheader, label %._crit_edge

.lr.ph.preheader:                                 ; preds = %3
  %wide.trip.count = zext nneg i32 %6 to i64
  br label %.lr.ph

8:                                                ; preds = %.lr.ph
  %indvars.iv.next = add nuw nsw i64 %indvars.iv, 1
  %exitcond.not = icmp eq i64 %indvars.iv.next, %wide.trip.count
  br i1 %exitcond.not, label %._crit_edge, label %.lr.ph, !llvm.loop !36

.lr.ph:                                           ; preds = %.lr.ph.preheader, %8
  %indvars.iv = phi i64 [ 0, %.lr.ph.preheader ], [ %indvars.iv.next, %8 ]
  %9 = getelementptr inbounds nuw [10 x %struct.anon], ptr getelementptr inbounds nuw (i8, ptr @ourglobals, i64 16), i64 0, i64 %indvars.iv
  %10 = load i32, ptr %9, align 8, !tbaa !32
  %11 = icmp eq i32 %10, %1
  br i1 %11, label %12, label %8

12:                                               ; preds = %.lr.ph
  %13 = load i32, ptr getelementptr inbounds nuw (i8, ptr @ourglobals, i64 2020), align 4, !tbaa !34
  store i32 %13, ptr %2, align 4, !tbaa !22
  %14 = getelementptr inbounds nuw i8, ptr %9, i64 8
  br label %17

._crit_edge:                                      ; preds = %8, %3
  %15 = load ptr, ptr getelementptr inbounds nuw (i8, ptr @ourglobals, i64 8), align 8, !tbaa !18
  %16 = tail call ptr @OSSL_PROVIDER_query_operation(ptr noundef %15, i32 noundef %1, ptr noundef %2) #7
  br label %17

17:                                               ; preds = %._crit_edge, %12
  %.014 = phi ptr [ %14, %12 ], [ %16, %._crit_edge ]
  ret ptr %.014
}